target datalayout = "e-m:e-p270:32:32-p271:32:32-p272:64:64-i64:64-i128:128-f80:128-n8:16:32:64-S128"
target triple = "x86_64-pc-linux-gnu"

%class.G1TaskQueueEntry = type { ptr }
%"struct.G1CMMarkStack::TaskQueueEntryChunk" = type { ptr, [1023 x %class.G1TaskQueueEntry] }

; Function Attrs: mustprogress nounwind uwtable
define hidden noundef ptr @_ZN13G1CMMarkStack22remove_chunk_from_listEPVPNS_19TaskQueueEntryChunkE(ptr noundef nonnull align 8 dereferenceable(688) %0, ptr noundef %1) #1 align 2 {
  %3 = alloca ptr, align 8
  %4 = alloca ptr, align 8
  %5 = alloca ptr, align 8
  store ptr %0, ptr %3, align 8
  store ptr %1, ptr %4, align 8
  %6 = load ptr, ptr %4, align 8
  %7 = load volatile ptr, ptr %6, align 8
  store ptr %7, ptr %5, align 8
  %8 = load ptr, ptr %5, align 8
  %9 = icmp ne ptr %8, null
  br i1 %9, label %10, label %16

10:                                               ; preds = %2
  %11 = load ptr, ptr %4, align 8
  %12 = load volatile ptr, ptr %11, align 8
  %13 = getelementptr inbounds %"struct.G1CMMarkStack::TaskQueueEntryChunk", ptr %12, i32 0, i32 0
  %14 = load ptr, ptr %13, align 8
  %15 = load ptr, ptr %4, align 8
  store volatile ptr %14, ptr %15, align 8
  br label %16

16:                                               ; preds = %10, %2
  %17 = load ptr, ptr %5, align 8
  ret ptr %17
}