; Function Attrs: mustprogress nofree norecurse nounwind memory(read, argmem: readwrite, inaccessiblemem: readwrite) uwtable
define hidden noundef ptr @_ZN13G1CMMarkStack22remove_chunk_from_listEPVPNS_19TaskQueueEntryChunkE(ptr nocapture noundef nonnull readnone align 8 dereferenceable(688) %0, ptr noundef %1) local_unnamed_addr #5 align 2 {
  %3 = load volatile ptr, ptr %1, align 8
  %.not = icmp eq ptr %3, null
  br i1 %.not, label %7, label %4

4:                                                ; preds = %2
  %5 = load volatile ptr, ptr %1, align 8
  %6 = load ptr, ptr %5, align 8
  store volatile ptr %6, ptr %1, align 8
  br label %7

7:                                                ; preds = %4, %2
  ret ptr %3
}